target datalayout = "e-m:e-p270:32:32-p271:32:32-p272:64:64-i64:64-i128:128-f80:128-n8:16:32:64-S128"
target triple = "x86_64-pc-linux-gnu"

%struct.psa_key_attributes_s = type { i16, i16, i32, %struct.psa_key_policy_s, i32 }
%struct.psa_key_policy_s = type { i32, i32, i32 }
%struct.psa_crypto_driver_pake_inputs_s = type { ptr, i64, ptr, i64, ptr, i64, %struct.psa_key_attributes_s, %struct.psa_pake_cipher_suite_s }
%struct.psa_pake_cipher_suite_s = type { i32, i8, i8, i16, i32 }

; Function Attrs: nounwind uwtable
define hidden i32 @psa_crypto_driver_pake_get_user_len(ptr noundef %0, ptr noundef %1) #0 {
  %3 = alloca i32, align 4
  %4 = alloca ptr, align 8
  %5 = alloca ptr, align 8
  store ptr %0, ptr %4, align 8, !tbaa !132
  store ptr %1, ptr %5, align 8, !tbaa !32
  %6 = load ptr, ptr %4, align 8, !tbaa !132
  %7 = getelementptr inbounds nuw %struct.psa_crypto_driver_pake_inputs_s, ptr %6, i32 0, i32 3
  %8 = load i64, ptr %7, align 8, !tbaa !138
  %9 = icmp eq i64 %8, 0
  br i1 %9, label %10, label %11

10:                                               ; preds = %2
  store i32 -137, ptr %3, align 4
  br label %16

11:                                               ; preds = %2
  %12 = load ptr, ptr %4, align 8, !tbaa !132
  %13 = getelementptr inbounds nuw %struct.psa_crypto_driver_pake_inputs_s, ptr %12, i32 0, i32 3
  %14 = load i64, ptr %13, align 8, !tbaa !138
  %15 = load ptr, ptr %5, align 8, !tbaa !32
  store i64 %14, ptr %15, align 8, !tbaa !20
  store i32 0, ptr %3, align 4
  br label %16

16:                                               ; preds = %11, %10
  %17 = load i32, ptr %3, align 4
  ret i32 %17
}