; Function Attrs: mustprogress nofree norecurse nosync nounwind willreturn memory(argmem: readwrite) uwtable
define hidden range(i32 -137, 1) i32 @psa_crypto_driver_pake_get_user_len(ptr noundef readonly captures(none) %0, ptr noundef writeonly captures(none) %1) local_unnamed_addr #10 {
  %3 = getelementptr inbounds nuw i8, ptr %0, i64 24
  %4 = load i64, ptr %3, align 8, !tbaa !114
  %5 = icmp eq i64 %4, 0
  br i1 %5, label %7, label %6

6:                                                ; preds = %2
  store i64 %4, ptr %1, align 8, !tbaa !25
  br label %7

7:                                                ; preds = %2, %6
  %.0 = phi i32 [ 0, %6 ], [ -137, %2 ]
  ret i32 %.0
}